target datalayout = "e-m:e-p270:32:32-p271:32:32-p272:64:64-i64:64-i128:128-f80:128-n8:16:32:64-S128"
target triple = "x86_64-pc-linux-gnu"

%"class.llvm::StringRef" = type { ptr, i64 }

; Function Attrs: mustprogress nounwind uwtable
define linkonce_odr hidden noundef i64 @_ZNSt11char_traitsIcE6lengthEPKc(ptr noundef %0) #0 comdat align 2 {
  %2 = alloca ptr, align 8
  store ptr %0, ptr %2, align 8
  %3 = load ptr, ptr %2, align 8
  %4 = call i64 @strlen(ptr noundef %3) #10
  ret i64 %4
}

; Function Attrs: mustprogress nounwind uwtable
define linkonce_odr hidden void @_ZN4llvm13RewriteBuffer16InsertTextBeforeEjNS_9StringRefE(ptr noundef nonnull align 8 dereferenceable(32) %0, i32 noundef %1, ptr %2, i64 %3) #0 comdat align 2 {
  %5 = alloca %"class.llvm::StringRef", align 8
  %6 = alloca ptr, align 8
  %7 = alloca i32, align 4
  %8 = alloca %"class.llvm::StringRef", align 8
  %9 = getelementptr inbounds nuw { ptr, i64 }, ptr %5, i32 0, i32 0
  store ptr %2, ptr %9, align 8
  %10 = getelementptr inbounds nuw { ptr, i64 }, ptr %5, i32 0, i32 1
  store i64 %3, ptr %10, align 8
  store ptr %0, ptr %6, align 8
  store i32 %1, ptr %7, align 4
  %11 = load ptr, ptr %6, align 8
  %12 = load i32, ptr %7, align 4
  call void @llvm.memcpy.p0.p0.i64(ptr align 8 %8, ptr align 8 %5, i64 16, i1 false)
  %13 = getelementptr inbounds nuw { ptr, i64 }, ptr %8, i32 0, i32 0
  %14 = load ptr, ptr %13, align 8
  %15 = getelementptr inbounds nuw { ptr, i64 }, ptr %8, i32 0, i32 1
  %16 = load i64, ptr %15, align 8
  call void @_ZN4llvm13RewriteBuffer10InsertTextEjNS_9StringRefEb(ptr noundef nonnull align 8 dereferenceable(32) %11, i32 noundef %12, ptr %14, i64 %16, i1 noundef zeroext false)
  ret void
}

; Function Attrs: mustprogress nounwind uwtable
define linkonce_odr hidden void @_ZN4llvm13RewriteBuffer15InsertTextAfterEjNS_9StringRefE(ptr noundef nonnull align 8 dereferenceable(32) %0, i32 noundef %1, ptr %2, i64 %3) #0 comdat align 2 {
  %5 = alloca %"class.llvm::StringRef", align 8
  %6 = alloca ptr, align 8
  %7 = alloca i32, align 4
  %8 = alloca %"class.llvm::StringRef", align 8
  %9 = getelementptr inbounds nuw { ptr, i64 }, ptr %5, i32 0, i32 0
  store ptr %2, ptr %9, align 8
  %10 = getelementptr inbounds nuw { ptr, i64 }, ptr %5, i32 0, i32 1
  store i64 %3, ptr %10, align 8
  store ptr %0, ptr %6, align 8
  store i32 %1, ptr %7, align 4
  %11 = load ptr, ptr %6, align 8
  %12 = load i32, ptr %7, align 4
  call void @llvm.memcpy.p0.p0.i64(ptr align 8 %8, ptr align 8 %5, i64 16, i1 false)
  %13 = getelementptr inbounds nuw { ptr, i64 }, ptr %8, i32 0, i32 0
  %14 = load ptr, ptr %13, align 8
  %15 = getelementptr inbounds nuw { ptr, i64 }, ptr %8, i32 0, i32 1
  %16 = load i64, ptr %15, align 8
  call void @_ZN4llvm13RewriteBuffer10InsertTextEjNS_9StringRefEb(ptr noundef nonnull align 8 dereferenceable(32) %11, i32 noundef %12, ptr %14, i64 %16, i1 noundef zeroext true)
  ret void
}

; Function Attrs: mustprogress nounwind uwtable
define linkonce_odr hidden void @_ZN4llvm9StringRefC2EPKc(ptr noundef nonnull align 8 dereferenceable(16) %0, ptr noundef %1) unnamed_addr #0 comdat align 2 {
  %3 = alloca ptr, align 8
  %4 = alloca ptr, align 8
  store ptr %0, ptr %3, align 8
  store ptr %1, ptr %4, align 8
  %5 = load ptr, ptr %3, align 8
  %6 = getelementptr inbounds nuw %"class.llvm::StringRef", ptr %5, i32 0, i32 0
  %7 = load ptr, ptr %4, align 8
  store ptr %7, ptr %6, align 8
  %8 = getelementptr inbounds nuw %"class.llvm::StringRef", ptr %5, i32 0, i32 1
  %9 = load ptr, ptr %4, align 8
  %10 = icmp ne ptr %9, null
  br i1 %10, label %11, label %14

11:                                               ; preds = %2
  %12 = load ptr, ptr %4, align 8
  %13 = call noundef i64 @_ZNSt11char_traitsIcE6lengthEPKc(ptr noundef %12)
  br label %15

14:                                               ; preds = %2
  br label %15

15:                                               ; preds = %14, %11
  %16 = phi i64 [ %13, %11 ], [ 0, %14 ]
  store i64 %16, ptr %8, align 8
  ret void
}

; Function Attrs: mustprogress nounwind uwtable
define dso_local void @_ZN5clang4html14HighlightRangeERN4llvm13RewriteBufferEjjPKcS5_S5_(ptr noundef nonnull align 8 dereferenceable(32) %0, i32 noundef %1, i32 noundef %2, ptr noundef %3, ptr noundef %4, ptr noundef %5) #0 {
  %7 = alloca ptr, align 8
  %8 = alloca i32, align 4
  %9 = alloca i32, align 4
  %10 = alloca ptr, align 8
  %11 = alloca ptr, align 8
  %12 = alloca ptr, align 8
  %13 = alloca %"class.llvm::StringRef", align 8
  %14 = alloca %"class.llvm::StringRef", align 8
  %15 = alloca i8, align 1
  %16 = alloca i32, align 4
  %17 = alloca i32, align 4
  %18 = alloca %"class.llvm::StringRef", align 8
  %19 = alloca %"class.llvm::StringRef", align 8
  store ptr %0, ptr %7, align 8
  store i32 %1, ptr %8, align 4
  store i32 %2, ptr %9, align 4
  store ptr %3, ptr %10, align 8
  store ptr %4, ptr %11, align 8
  store ptr %5, ptr %12, align 8
  %20 = load ptr, ptr %7, align 8
  %21 = load i32, ptr %8, align 4
  %22 = load ptr, ptr %11, align 8
  call void @_ZN4llvm9StringRefC2EPKc(ptr noundef nonnull align 8 dereferenceable(16) %13, ptr noundef %22)
  %23 = getelementptr inbounds nuw { ptr, i64 }, ptr %13, i32 0, i32 0
  %24 = load ptr, ptr %23, align 8
  %25 = getelementptr inbounds nuw { ptr, i64 }, ptr %13, i32 0, i32 1
  %26 = load i64, ptr %25, align 8
  call void @_ZN4llvm13RewriteBuffer15InsertTextAfterEjNS_9StringRefE(ptr noundef nonnull align 8 dereferenceable(32) %20, i32 noundef %21, ptr %24, i64 %26)
  %27 = load ptr, ptr %7, align 8
  %28 = load i32, ptr %9, align 4
  %29 = load ptr, ptr %12, align 8
  call void @_ZN4llvm9StringRefC2EPKc(ptr noundef nonnull align 8 dereferenceable(16) %14, ptr noundef %29)
  %30 = getelementptr inbounds nuw { ptr, i64 }, ptr %14, i32 0, i32 0
  %31 = load ptr, ptr %30, align 8
  %32 = getelementptr inbounds nuw { ptr, i64 }, ptr %14, i32 0, i32 1
  %33 = load i64, ptr %32, align 8
  call void @_ZN4llvm13RewriteBuffer16InsertTextBeforeEjNS_9StringRefE(ptr noundef nonnull align 8 dereferenceable(32) %27, i32 noundef %28, ptr %31, i64 %33)
  store i8 1, ptr %15, align 1
  %34 = load i32, ptr %8, align 4
  store i32 %34, ptr %16, align 4
  %35 = load i32, ptr %8, align 4
  store i32 %35, ptr %17, align 4
  br label %36

36:                                               ; preds = %75, %6
  %37 = load i32, ptr %17, align 4
  %38 = load i32, ptr %9, align 4
  %39 = icmp ne i32 %37, %38
  br i1 %39, label %40, label %78

40:                                               ; preds = %36
  %41 = load ptr, ptr %10, align 8
  %42 = load i32, ptr %17, align 4
  %43 = zext i32 %42 to i64
  %44 = getelementptr inbounds i8, ptr %41, i64 %43
  %45 = load i8, ptr %44, align 1
  %46 = sext i8 %45 to i32
  switch i32 %46, label %61 [
    i32 13, label %47
    i32 10, label %47
    i32 0, label %60
    i32 32, label %60
    i32 9, label %60
    i32 12, label %60
    i32 11, label %60
  ]

47:                                               ; preds = %40, %40
  %48 = load i8, ptr %15, align 1
  %49 = trunc i8 %48 to i1
  br i1 %49, label %50, label %59

50:                                               ; preds = %47
  %51 = load ptr, ptr %7, align 8
  %52 = load i32, ptr %16, align 4
  %53 = add i32 %52, 1
  %54 = load ptr, ptr %12, align 8
  call void @_ZN4llvm9StringRefC2EPKc(ptr noundef nonnull align 8 dereferenceable(16) %18, ptr noundef %54)
  %55 = getelementptr inbounds nuw { ptr, i64 }, ptr %18, i32 0, i32 0
  %56 = load ptr, ptr %55, align 8
  %57 = getelementptr inbounds nuw { ptr, i64 }, ptr %18, i32 0, i32 1
  %58 = load i64, ptr %57, align 8
  call void @_ZN4llvm13RewriteBuffer16InsertTextBeforeEjNS_9StringRefE(ptr noundef nonnull align 8 dereferenceable(32) %51, i32 noundef %53, ptr %56, i64 %58)
  br label %59

59:                                               ; preds = %50, %47
  store i8 0, ptr %15, align 1
  br label %74

60:                                               ; preds = %40, %40, %40, %40, %40
  br label %74

61:                                               ; preds = %40
  %62 = load i8, ptr %15, align 1
  %63 = trunc i8 %62 to i1
  br i1 %63, label %72, label %64

64:                                               ; preds = %61
  %65 = load ptr, ptr %7, align 8
  %66 = load i32, ptr %17, align 4
  %67 = load ptr, ptr %11, align 8
  call void @_ZN4llvm9StringRefC2EPKc(ptr noundef nonnull align 8 dereferenceable(16) %19, ptr noundef %67)
  %68 = getelementptr inbounds nuw { ptr, i64 }, ptr %19, i32 0, i32 0
  %69 = load ptr, ptr %68, align 8
  %70 = getelementptr inbounds nuw { ptr, i64 }, ptr %19, i32 0, i32 1
  %71 = load i64, ptr %70, align 8
  call void @_ZN4llvm13RewriteBuffer15InsertTextAfterEjNS_9StringRefE(ptr noundef nonnull align 8 dereferenceable(32) %65, i32 noundef %66, ptr %69, i64 %71)
  store i8 1, ptr %15, align 1
  br label %72

72:                                               ; preds = %64, %61
  %73 = load i32, ptr %17, align 4
  store i32 %73, ptr %16, align 4
  br label %74

74:                                               ; preds = %72, %60, %59
  br label %75

75:                                               ; preds = %74
  %76 = load i32, ptr %17, align 4
  %77 = add i32 %76, 1
  store i32 %77, ptr %17, align 4
  br label %36, !llvm.loop !4

78:                                               ; preds = %36
  ret void
}