; Function Attrs: mustprogress nounwind uwtable
define dso_local void @_ZN5clang4html14HighlightRangeERN4llvm13RewriteBufferEjjPKcS5_S5_(ptr noundef nonnull align 8 dereferenceable(32) %0, i32 noundef %1, i32 noundef %2, ptr nocapture noundef readonly %3, ptr noundef %4, ptr noundef %5) local_unnamed_addr #0 {
  %.not.i = icmp eq ptr %4, null
  br i1 %.not.i, label %_ZN4llvm9StringRefC2EPKc.exit, label %7

7:                                                ; preds = %6
  %8 = tail call noundef i64 @strlen(ptr noundef nonnull dereferenceable(1) %4) #14
  br label %_ZN4llvm9StringRefC2EPKc.exit

_ZN4llvm9StringRefC2EPKc.exit:                    ; preds = %6, %7
  %9 = phi i64 [ %8, %7 ], [ 0, %6 ]
  tail call void @_ZN4llvm13RewriteBuffer10InsertTextEjNS_9StringRefEb(ptr noundef nonnull align 8 dereferenceable(32) %0, i32 noundef %1, ptr %4, i64 %9, i1 noundef zeroext true) #14
  %.not.i24 = icmp eq ptr %5, null
  br i1 %.not.i24, label %_ZN4llvm9StringRefC2EPKc.exit25, label %_ZN4llvm9StringRefC2EPKc.exit25.thread

_ZN4llvm9StringRefC2EPKc.exit25:                  ; preds = %_ZN4llvm9StringRefC2EPKc.exit
  tail call void @_ZN4llvm13RewriteBuffer10InsertTextEjNS_9StringRefEb(ptr noundef nonnull align 8 dereferenceable(32) %0, i32 noundef %2, ptr %5, i64 0, i1 noundef zeroext false) #14
  %.not36 = icmp eq i32 %1, %2
  br i1 %.not36, label %._crit_edge, label %.lr.ph.split.us

_ZN4llvm9StringRefC2EPKc.exit25.thread:           ; preds = %_ZN4llvm9StringRefC2EPKc.exit
  %10 = tail call noundef i64 @strlen(ptr noundef nonnull dereferenceable(1) %5) #14
  tail call void @_ZN4llvm13RewriteBuffer10InsertTextEjNS_9StringRefEb(ptr noundef nonnull align 8 dereferenceable(32) %0, i32 noundef %2, ptr nonnull %5, i64 %10, i1 noundef zeroext false) #14
  %.not3651 = icmp eq i32 %1, %2
  br i1 %.not3651, label %._crit_edge, label %.lr.ph.split

.lr.ph.split.us:                                  ; preds = %_ZN4llvm9StringRefC2EPKc.exit25
  br i1 %.not.i, label %.lr.ph.split.us.split.us, label %.lr.ph.split.us.split

.lr.ph.split.us.split.us:                         ; preds = %.lr.ph.split.us, %19
  %.039.us.us = phi i32 [ %20, %19 ], [ %1, %.lr.ph.split.us ]
  %.02138.us.us = phi i32 [ %.1.us.us, %19 ], [ %1, %.lr.ph.split.us ]
  %.02237.us.us = phi i8 [ %.2.us.us, %19 ], [ 1, %.lr.ph.split.us ]
  %11 = zext i32 %.039.us.us to i64
  %12 = getelementptr inbounds i8, ptr %3, i64 %11
  %13 = load i8, ptr %12, align 1
  switch i8 %13, label %17 [
    i8 13, label %14
    i8 10, label %14
    i8 0, label %19
    i8 32, label %19
    i8 9, label %19
    i8 12, label %19
    i8 11, label %19
  ]

14:                                               ; preds = %.lr.ph.split.us.split.us, %.lr.ph.split.us.split.us
  %15 = trunc nuw i8 %.02237.us.us to i1
  br i1 %15, label %_ZN4llvm9StringRefC2EPKc.exit27.us.us, label %19

_ZN4llvm9StringRefC2EPKc.exit27.us.us:            ; preds = %14
  %16 = add i32 %.02138.us.us, 1
  tail call void @_ZN4llvm13RewriteBuffer10InsertTextEjNS_9StringRefEb(ptr noundef nonnull align 8 dereferenceable(32) %0, i32 noundef %16, ptr null, i64 0, i1 noundef zeroext false) #14
  br label %19

17:                                               ; preds = %.lr.ph.split.us.split.us
  %18 = trunc nuw i8 %.02237.us.us to i1
  br i1 %18, label %19, label %_ZN4llvm9StringRefC2EPKc.exit29.us.us

_ZN4llvm9StringRefC2EPKc.exit29.us.us:            ; preds = %17
  tail call void @_ZN4llvm13RewriteBuffer10InsertTextEjNS_9StringRefEb(ptr noundef nonnull align 8 dereferenceable(32) %0, i32 noundef %.039.us.us, ptr null, i64 0, i1 noundef zeroext true) #14
  br label %19

19:                                               ; preds = %_ZN4llvm9StringRefC2EPKc.exit29.us.us, %17, %_ZN4llvm9StringRefC2EPKc.exit27.us.us, %14, %.lr.ph.split.us.split.us, %.lr.ph.split.us.split.us, %.lr.ph.split.us.split.us, %.lr.ph.split.us.split.us, %.lr.ph.split.us.split.us
  %.2.us.us = phi i8 [ %.02237.us.us, %.lr.ph.split.us.split.us ], [ %.02237.us.us, %.lr.ph.split.us.split.us ], [ %.02237.us.us, %.lr.ph.split.us.split.us ], [ %.02237.us.us, %.lr.ph.split.us.split.us ], [ %.02237.us.us, %.lr.ph.split.us.split.us ], [ 0, %_ZN4llvm9StringRefC2EPKc.exit27.us.us ], [ 0, %14 ], [ %.02237.us.us, %17 ], [ 1, %_ZN4llvm9StringRefC2EPKc.exit29.us.us ]
  %.1.us.us = phi i32 [ %.02138.us.us, %.lr.ph.split.us.split.us ], [ %.02138.us.us, %.lr.ph.split.us.split.us ], [ %.02138.us.us, %.lr.ph.split.us.split.us ], [ %.02138.us.us, %.lr.ph.split.us.split.us ], [ %.02138.us.us, %.lr.ph.split.us.split.us ], [ %.02138.us.us, %_ZN4llvm9StringRefC2EPKc.exit27.us.us ], [ %.02138.us.us, %14 ], [ %.039.us.us, %17 ], [ %.039.us.us, %_ZN4llvm9StringRefC2EPKc.exit29.us.us ]
  %20 = add i32 %.039.us.us, 1
  %.not.us.us = icmp eq i32 %20, %2
  br i1 %.not.us.us, label %._crit_edge, label %.lr.ph.split.us.split.us, !llvm.loop !4

.lr.ph.split.us.split:                            ; preds = %.lr.ph.split.us, %30
  %.039.us = phi i32 [ %31, %30 ], [ %1, %.lr.ph.split.us ]
  %.02138.us = phi i32 [ %.1.us, %30 ], [ %1, %.lr.ph.split.us ]
  %.02237.us = phi i8 [ %.2.us, %30 ], [ 1, %.lr.ph.split.us ]
  %21 = zext i32 %.039.us to i64
  %22 = getelementptr inbounds i8, ptr %3, i64 %21
  %23 = load i8, ptr %22, align 1
  switch i8 %23, label %27 [
    i8 13, label %24
    i8 10, label %24
    i8 0, label %30
    i8 32, label %30
    i8 9, label %30
    i8 12, label %30
    i8 11, label %30
  ]

24:                                               ; preds = %.lr.ph.split.us.split, %.lr.ph.split.us.split
  %25 = trunc nuw i8 %.02237.us to i1
  br i1 %25, label %_ZN4llvm9StringRefC2EPKc.exit27.us, label %30

_ZN4llvm9StringRefC2EPKc.exit27.us:               ; preds = %24
  %26 = add i32 %.02138.us, 1
  tail call void @_ZN4llvm13RewriteBuffer10InsertTextEjNS_9StringRefEb(ptr noundef nonnull align 8 dereferenceable(32) %0, i32 noundef %26, ptr null, i64 0, i1 noundef zeroext false) #14
  br label %30

27:                                               ; preds = %.lr.ph.split.us.split
  %28 = trunc nuw i8 %.02237.us to i1
  br i1 %28, label %30, label %_ZN4llvm9StringRefC2EPKc.exit29.us

_ZN4llvm9StringRefC2EPKc.exit29.us:               ; preds = %27
  %29 = tail call noundef i64 @strlen(ptr noundef nonnull dereferenceable(1) %4) #14
  tail call void @_ZN4llvm13RewriteBuffer10InsertTextEjNS_9StringRefEb(ptr noundef nonnull align 8 dereferenceable(32) %0, i32 noundef %.039.us, ptr nonnull %4, i64 %29, i1 noundef zeroext true) #14
  br label %30

30:                                               ; preds = %_ZN4llvm9StringRefC2EPKc.exit29.us, %27, %_ZN4llvm9StringRefC2EPKc.exit27.us, %24, %.lr.ph.split.us.split, %.lr.ph.split.us.split, %.lr.ph.split.us.split, %.lr.ph.split.us.split, %.lr.ph.split.us.split
  %.2.us = phi i8 [ %.02237.us, %.lr.ph.split.us.split ], [ %.02237.us, %.lr.ph.split.us.split ], [ %.02237.us, %.lr.ph.split.us.split ], [ %.02237.us, %.lr.ph.split.us.split ], [ %.02237.us, %.lr.ph.split.us.split ], [ 0, %_ZN4llvm9StringRefC2EPKc.exit27.us ], [ 0, %24 ], [ %.02237.us, %27 ], [ 1, %_ZN4llvm9StringRefC2EPKc.exit29.us ]
  %.1.us = phi i32 [ %.02138.us, %.lr.ph.split.us.split ], [ %.02138.us, %.lr.ph.split.us.split ], [ %.02138.us, %.lr.ph.split.us.split ], [ %.02138.us, %.lr.ph.split.us.split ], [ %.02138.us, %.lr.ph.split.us.split ], [ %.02138.us, %_ZN4llvm9StringRefC2EPKc.exit27.us ], [ %.02138.us, %24 ], [ %.039.us, %27 ], [ %.039.us, %_ZN4llvm9StringRefC2EPKc.exit29.us ]
  %31 = add i32 %.039.us, 1
  %.not.us = icmp eq i32 %31, %2
  br i1 %.not.us, label %._crit_edge, label %.lr.ph.split.us.split, !llvm.loop !4

.lr.ph.split:                                     ; preds = %_ZN4llvm9StringRefC2EPKc.exit25.thread
  br i1 %.not.i, label %.lr.ph.split.split.us, label %.lr.ph.split.split

.lr.ph.split.split.us:                            ; preds = %.lr.ph.split, %41
  %.039.us40 = phi i32 [ %42, %41 ], [ %1, %.lr.ph.split ]
  %.02138.us41 = phi i32 [ %.1.us46, %41 ], [ %1, %.lr.ph.split ]
  %.02237.us42 = phi i8 [ %.2.us45, %41 ], [ 1, %.lr.ph.split ]
  %32 = zext i32 %.039.us40 to i64
  %33 = getelementptr inbounds i8, ptr %3, i64 %32
  %34 = load i8, ptr %33, align 1
  switch i8 %34, label %39 [
    i8 13, label %35
    i8 10, label %35
    i8 0, label %41
    i8 32, label %41
    i8 9, label %41
    i8 12, label %41
    i8 11, label %41
  ]

35:                                               ; preds = %.lr.ph.split.split.us, %.lr.ph.split.split.us
  %36 = trunc nuw i8 %.02237.us42 to i1
  br i1 %36, label %_ZN4llvm9StringRefC2EPKc.exit27.us43, label %41

_ZN4llvm9StringRefC2EPKc.exit27.us43:             ; preds = %35
  %37 = add i32 %.02138.us41, 1
  %38 = tail call noundef i64 @strlen(ptr noundef nonnull dereferenceable(1) %5) #14
  tail call void @_ZN4llvm13RewriteBuffer10InsertTextEjNS_9StringRefEb(ptr noundef nonnull align 8 dereferenceable(32) %0, i32 noundef %37, ptr nonnull %5, i64 %38, i1 noundef zeroext false) #14
  br label %41

39:                                               ; preds = %.lr.ph.split.split.us
  %40 = trunc nuw i8 %.02237.us42 to i1
  br i1 %40, label %41, label %_ZN4llvm9StringRefC2EPKc.exit29.us44

_ZN4llvm9StringRefC2EPKc.exit29.us44:             ; preds = %39
  tail call void @_ZN4llvm13RewriteBuffer10InsertTextEjNS_9StringRefEb(ptr noundef nonnull align 8 dereferenceable(32) %0, i32 noundef %.039.us40, ptr null, i64 0, i1 noundef zeroext true) #14
  br label %41

41:                                               ; preds = %_ZN4llvm9StringRefC2EPKc.exit29.us44, %39, %_ZN4llvm9StringRefC2EPKc.exit27.us43, %35, %.lr.ph.split.split.us, %.lr.ph.split.split.us, %.lr.ph.split.split.us, %.lr.ph.split.split.us, %.lr.ph.split.split.us
  %.2.us45 = phi i8 [ %.02237.us42, %.lr.ph.split.split.us ], [ %.02237.us42, %.lr.ph.split.split.us ], [ %.02237.us42, %.lr.ph.split.split.us ], [ %.02237.us42, %.lr.ph.split.split.us ], [ %.02237.us42, %.lr.ph.split.split.us ], [ 0, %_ZN4llvm9StringRefC2EPKc.exit27.us43 ], [ 0, %35 ], [ %.02237.us42, %39 ], [ 1, %_ZN4llvm9StringRefC2EPKc.exit29.us44 ]
  %.1.us46 = phi i32 [ %.02138.us41, %.lr.ph.split.split.us ], [ %.02138.us41, %.lr.ph.split.split.us ], [ %.02138.us41, %.lr.ph.split.split.us ], [ %.02138.us41, %.lr.ph.split.split.us ], [ %.02138.us41, %.lr.ph.split.split.us ], [ %.02138.us41, %_ZN4llvm9StringRefC2EPKc.exit27.us43 ], [ %.02138.us41, %35 ], [ %.039.us40, %39 ], [ %.039.us40, %_ZN4llvm9StringRefC2EPKc.exit29.us44 ]
  %42 = add i32 %.039.us40, 1
  %.not.us47 = icmp eq i32 %42, %2
  br i1 %.not.us47, label %._crit_edge, label %.lr.ph.split.split.us, !llvm.loop !4

.lr.ph.split.split:                               ; preds = %.lr.ph.split, %53
  %.039 = phi i32 [ %54, %53 ], [ %1, %.lr.ph.split ]
  %.02138 = phi i32 [ %.1, %53 ], [ %1, %.lr.ph.split ]
  %.02237 = phi i8 [ %.2, %53 ], [ 1, %.lr.ph.split ]
  %43 = zext i32 %.039 to i64
  %44 = getelementptr inbounds i8, ptr %3, i64 %43
  %45 = load i8, ptr %44, align 1
  switch i8 %45, label %50 [
    i8 13, label %46
    i8 10, label %46
    i8 0, label %53
    i8 32, label %53
    i8 9, label %53
    i8 12, label %53
    i8 11, label %53
  ]

46:                                               ; preds = %.lr.ph.split.split, %.lr.ph.split.split
  %47 = trunc nuw i8 %.02237 to i1
  br i1 %47, label %_ZN4llvm9StringRefC2EPKc.exit27, label %53

_ZN4llvm9StringRefC2EPKc.exit27:                  ; preds = %46
  %48 = add i32 %.02138, 1
  %49 = tail call noundef i64 @strlen(ptr noundef nonnull dereferenceable(1) %5) #14
  tail call void @_ZN4llvm13RewriteBuffer10InsertTextEjNS_9StringRefEb(ptr noundef nonnull align 8 dereferenceable(32) %0, i32 noundef %48, ptr nonnull %5, i64 %49, i1 noundef zeroext false) #14
  br label %53

50:                                               ; preds = %.lr.ph.split.split
  %51 = trunc nuw i8 %.02237 to i1
  br i1 %51, label %53, label %_ZN4llvm9StringRefC2EPKc.exit29

_ZN4llvm9StringRefC2EPKc.exit29:                  ; preds = %50
  %52 = tail call noundef i64 @strlen(ptr noundef nonnull dereferenceable(1) %4) #14
  tail call void @_ZN4llvm13RewriteBuffer10InsertTextEjNS_9StringRefEb(ptr noundef nonnull align 8 dereferenceable(32) %0, i32 noundef %.039, ptr nonnull %4, i64 %52, i1 noundef zeroext true) #14
  br label %53

53:                                               ; preds = %50, %_ZN4llvm9StringRefC2EPKc.exit29, %46, %_ZN4llvm9StringRefC2EPKc.exit27, %.lr.ph.split.split, %.lr.ph.split.split, %.lr.ph.split.split, %.lr.ph.split.split, %.lr.ph.split.split
  %.2 = phi i8 [ %.02237, %.lr.ph.split.split ], [ %.02237, %.lr.ph.split.split ], [ %.02237, %.lr.ph.split.split ], [ %.02237, %.lr.ph.split.split ], [ %.02237, %.lr.ph.split.split ], [ 0, %_ZN4llvm9StringRefC2EPKc.exit27 ], [ 0, %46 ], [ %.02237, %50 ], [ 1, %_ZN4llvm9StringRefC2EPKc.exit29 ]
  %.1 = phi i32 [ %.02138, %.lr.ph.split.split ], [ %.02138, %.lr.ph.split.split ], [ %.02138, %.lr.ph.split.split ], [ %.02138, %.lr.ph.split.split ], [ %.02138, %.lr.ph.split.split ], [ %.02138, %_ZN4llvm9StringRefC2EPKc.exit27 ], [ %.02138, %46 ], [ %.039, %50 ], [ %.039, %_ZN4llvm9StringRefC2EPKc.exit29 ]
  %54 = add i32 %.039, 1
  %.not = icmp eq i32 %54, %2
  br i1 %.not, label %._crit_edge, label %.lr.ph.split.split, !llvm.loop !4

._crit_edge:                                      ; preds = %53, %41, %30, %19, %_ZN4llvm9StringRefC2EPKc.exit25.thread, %_ZN4llvm9StringRefC2EPKc.exit25
  ret void
}